     1                                  section .text
     2                                  global main
     3                                  [bits 16]
     4                                  [org 0]
     5                                  main:
     6 00000000 90                          nop              ;给NTFS磕三个头
     7 00000001 90                          nop              ;第二个
     8 00000002 90                          nop              ;第三个
     9 00000003 8CC8                        mov ax,cs        ;把cs寄存器的值拿出来
    10 00000005 83C00A                      add ax,10        ;加上10
    11 00000008 8ED0                        mov ss,ax        ;再给栈段寄存器
    12 0000000A BCFFFF                      mov sp,0ffffh    ;初始化栈指针
    13 0000000D E80000                      call getip
    14                                          getip:       ;变相获得ip寄存器的值
    15 00000010 5F                                  pop di   ;放到di里(作为全局偏移量保证兼容性)
    16 00000011 B81100                              mov ax,$-main    ;减去getip之前的机器码长度    
    17 00000014 47                                  inc di
    18 00000015 29C7                                sub di,ax
    19 00000017 8CC8                        mov ax,cs
    20 00000019 8ED8                        mov ds,ax           ;初始化数据段寄存器
    21 0000001B B400                        MOV AH,00h
    22 0000001D B003                        MOV AL,03h          ; 80x25 16色文本模式
    23 0000001F CD10                        INT 10H
    24 00000021 B800B8                      mov ax,0b800h
    25 00000024 8EC0                        mov es,ax
    26 00000026 BE0000                      mov si,0
    27 00000029 BB[7D00]                    mov bx,information
    28 0000002C B18A                        mov cl,10001010b
    29 0000002E E8A200                      call pstr
    30 00000031 57                          push di
    31 00000032 BF0010                      mov di,1000h          ;临时用于存储VESA检测信息，等会会被32位代码覆盖
    32 00000035 B8004F                      mov ax,4F00h
    33 00000038 CD10                        int 10h
    34 0000003A 5F                          pop di
    35 0000003B 2666813E0010564553-         cmp dword [es:1000h],'VESA'
    35 00000044 41                 
    36 00000045 0F85A300                        jne  no_vesa
    37 00000049 B800B8                      mov ax,0b800h
    38 0000004C 8EC0                        mov es,ax
    39 0000004E BEA000                      mov si,160d
    40 00000051 BB[8B00]                    mov bx,support_vesa
    41 00000054 B18A                        mov cl,10001010b
    42 00000056 E87A00                      call pstr
    43                                          ;加载32位代码过程 
    44 00000059 FA                              cli         ;屏蔽外部中断
    45 0000005A B80001                              mov ax,100h
    46 0000005D 8EC0                                mov es,ax
    47 0000005F BE[FE00]                            mov si,start_32_bit
    48 00000062 01FE                                add si,di
    49 00000064 31FF                                xor di,di
    50                                              move_code:
    51 00000066 668B04                                  mov eax,[si]
    52 00000069 663D454E4443                            cmp eax,'ENDC'              ;比较是否是结束标志
    53 0000006F 7505                                    jne c_move
    54 00000071 EA00000001                                  jmp 100h:0000h
    55                                              c_move:
    56 00000076 83C604                                  add si,4
    57 00000079 66AB                                    stosd
    58 0000007B EBE9                                jmp move_code
    59 0000007D 426F6F742053756363-              information:   db  'Boot Succeed.' ,0
    59 00000086 6565642E00         
    60 0000008B 596F75722067726170-              support_vesa:  db  'Your graphic supported VESA 2.0.',0
    60 00000094 68696320737570706F-
    60 0000009D 727465642056455341-
    60 000000A6 20322E302E00       
    61 000000AC 596F75722067726170-              unsupport_vesa:db  'Your graphic NOT supported VESA 2.0!!!',0
    61 000000B5 686963204E4F542073-
    61 000000BE 7570706F7274656420-
    61 000000C7 5645534120322E3021-
    61 000000D0 212100             
    62                                           
    63                                      pstr:
    64 000000D3 01FB                            add bx,di
    65                                      pstr_loop:
    66 000000D5 3E8A07                          mov al,ds:[bx]
    67 000000D8 3C00                            cmp al,0
    68 000000DA 7501                            jne pstr_next
    69 000000DC C3                                  ret
    70                                          pstr_next:
    71 000000DD E80300                          call pchar
    72 000000E0 43                              inc bx
    73 000000E1 EBF2                        jmp pstr_loop
    74                                      pchar:
    75 000000E3 268804                          mov es:[si],al
    76 000000E6 46                              inc si
    77 000000E7 26880C                          mov es:[si],cl
    78 000000EA 46                              inc si
    79 000000EB C3                          ret
    80                                      no_vesa:    
    81 000000EC B800B8                          mov ax,0b800h
    82 000000EF 8EC0                            mov es,ax
    83 000000F1 BEA000                          mov si,160d
    84 000000F4 BB[AC00]                        mov bx,unsupport_vesa
    85 000000F7 B18C                            mov cl,10001100b
    86 000000F9 E8D7FF                          call pstr
    87 000000FC EBFE                           jmp $
    88                                  ;16位代码与数据部分结束     
    89                                  start_32_bit:
